target datalayout = "e-m:e-p270:32:32-p271:32:32-p272:64:64-i64:64-i128:128-f80:128-n8:16:32:64-S128"
target triple = "x86_64-pc-linux-gnu"

%struct.H5VL_loc_params_t = type { i32, i32, %union.anon }
%union.anon = type { %struct.H5VL_loc_by_idx }
%struct.H5VL_loc_by_idx = type { ptr, i32, i32, i64, i64 }
%struct.H5VL_loc_by_name = type { ptr, i64 }
%struct.H5VL_optional_args_t = type { i32, ptr }
%union.H5VL_native_object_optional_args_t = type { %struct.H5VL_native_object_get_comment_t }
%struct.H5VL_native_object_get_comment_t = type { i64, ptr, ptr }

@H5_libinit_g = external global i8, align 1
@H5_libterm_g = external global i8, align 1
@.str = private unnamed_addr constant [103 x i8] c"generated/home/dtcxzyw/WorkSpace/Projects/compilers/llvm-opt-benchmark/bench/hdf5/hdf5/src/H5Gdeprec.c\00", align 1
@H5E_FUNC_g = external global i64, align 8
@H5E_CANTINIT_g = external global i64, align 8
@.str.1 = private unnamed_addr constant [30 x i8] c"library initialization failed\00", align 1
@H5E_CANTSET_g = external global i64, align 8
@.str.2 = private unnamed_addr constant [22 x i8] c"can't set API context\00", align 1
@H5E_ARGS_g = external global i64, align 8
@H5E_BADVALUE_g = external global i64, align 8
@H5E_BADTYPE_g = external global i64, align 8
@H5E_SYM_g = external global i64, align 8
@H5E_CANTGET_g = external global i64, align 8
@.str.10 = private unnamed_addr constant [40 x i8] c"can't set collective metadata read info\00", align 1
@.str.11 = private unnamed_addr constant [28 x i8] c"invalid location identifier\00", align 1
@H5P_LST_DATASET_XFER_ID_g = external global i64, align 8
@H5P_LST_LINK_ACCESS_ID_g = external global i64, align 8
@.str.26 = private unnamed_addr constant [18 x i8] c"no name specified\00", align 1
@__func__.H5Gget_comment = private unnamed_addr constant [15 x i8] c"H5Gget_comment\00", align 1
@.str.29 = private unnamed_addr constant [20 x i8] c"no buffer specified\00", align 1
@.str.30 = private unnamed_addr constant [28 x i8] c"unable to get comment value\00", align 1

; Function Attrs: nounwind uwtable
define i32 @H5Gget_comment(i64 noundef %0, ptr noundef %1, i64 noundef %2, ptr noundef %3) #0 {
  %5 = alloca i64, align 8
  %6 = alloca ptr, align 8
  %7 = alloca i64, align 8
  %8 = alloca ptr, align 8
  %9 = alloca ptr, align 8
  %10 = alloca %struct.H5VL_optional_args_t, align 8
  %11 = alloca %union.H5VL_native_object_optional_args_t, align 8
  %12 = alloca %struct.H5VL_loc_params_t, align 8
  %13 = alloca i64, align 8
  %14 = alloca i32, align 4
  %15 = alloca i8, align 1
  %16 = alloca i8, align 1
  store i64 %0, ptr %5, align 8
  store ptr %1, ptr %6, align 8
  store i64 %2, ptr %7, align 8
  store ptr %3, ptr %8, align 8
  store i64 0, ptr %13, align 8
  store i8 0, ptr %15, align 1
  store i8 0, ptr %16, align 1
  %17 = load i8, ptr @H5_libinit_g, align 1
  %18 = trunc i8 %17 to i1
  br i1 %18, label %23, label %19

19:                                               ; preds = %4
  %20 = load i8, ptr @H5_libterm_g, align 1
  %21 = trunc i8 %20 to i1
  %22 = xor i1 %21, true
  br label %23

23:                                               ; preds = %19, %4
  %24 = phi i1 [ false, %4 ], [ %22, %19 ]
  %25 = xor i1 %24, true
  %26 = xor i1 %25, true
  %27 = zext i1 %26 to i32
  %28 = sext i32 %27 to i64
  %29 = icmp ne i64 %28, 0
  br i1 %29, label %30, label %54

30:                                               ; preds = %23
  %31 = call i32 @H5_init_library()
  %32 = icmp slt i32 %31, 0
  %33 = xor i1 %32, true
  %34 = xor i1 %33, true
  %35 = zext i1 %34 to i32
  %36 = sext i32 %35 to i64
  %37 = icmp ne i64 %36, 0
  br i1 %37, label %38, label %53

38:                                               ; preds = %30
  br label %39

39:                                               ; preds = %38
  br label %40

40:                                               ; preds = %39
  br label %41

41:                                               ; preds = %40
  %42 = load i64, ptr @H5E_FUNC_g, align 8
  %43 = load i64, ptr @H5E_CANTINIT_g, align 8
  %44 = call i32 (ptr, ptr, i32, i64, i64, ptr, ...) @H5E_printf_stack(ptr noundef @.str, ptr noundef @__func__.H5Gget_comment, i32 noundef 740, i64 noundef %42, i64 noundef %43, ptr noundef @.str.1)
  br label %45

45:                                               ; preds = %41
  store i8 1, ptr %16, align 1
  %46 = load i8, ptr %16, align 1
  %47 = trunc i8 %46 to i1
  %48 = zext i1 %47 to i8
  store i8 %48, ptr %16, align 1
  br label %49

49:                                               ; preds = %45
  br label %50

50:                                               ; preds = %49
  store i32 -1, ptr %14, align 4
  br label %200

51:                                               ; No predecessors!
  br label %52

52:                                               ; preds = %51
  br label %53

53:                                               ; preds = %52, %30
  br label %54

54:                                               ; preds = %53, %23
  %55 = call i32 @H5CX_push()
  %56 = icmp slt i32 %55, 0
  %57 = xor i1 %56, true
  %58 = xor i1 %57, true
  %59 = zext i1 %58 to i32
  %60 = sext i32 %59 to i64
  %61 = icmp ne i64 %60, 0
  br i1 %61, label %62, label %77

62:                                               ; preds = %54
  br label %63

63:                                               ; preds = %62
  br label %64

64:                                               ; preds = %63
  br label %65

65:                                               ; preds = %64
  %66 = load i64, ptr @H5E_FUNC_g, align 8
  %67 = load i64, ptr @H5E_CANTSET_g, align 8
  %68 = call i32 (ptr, ptr, i32, i64, i64, ptr, ...) @H5E_printf_stack(ptr noundef @.str, ptr noundef @__func__.H5Gget_comment, i32 noundef 740, i64 noundef %66, i64 noundef %67, ptr noundef @.str.2)
  br label %69

69:                                               ; preds = %65
  store i8 1, ptr %16, align 1
  %70 = load i8, ptr %16, align 1
  %71 = trunc i8 %70 to i1
  %72 = zext i1 %71 to i8
  store i8 %72, ptr %16, align 1
  br label %73

73:                                               ; preds = %69
  br label %74

74:                                               ; preds = %73
  store i32 -1, ptr %14, align 4
  br label %200

75:                                               ; No predecessors!
  br label %76

76:                                               ; preds = %75
  br label %78

77:                                               ; preds = %54
  store i8 1, ptr %15, align 1
  br label %78

78:                                               ; preds = %77, %76
  %79 = call i32 @H5E_clear_stack()
  %80 = load ptr, ptr %6, align 8
  %81 = icmp ne ptr %80, null
  br i1 %81, label %82, label %86

82:                                               ; preds = %78
  %83 = load ptr, ptr %6, align 8
  %84 = load i8, ptr %83, align 1
  %85 = icmp ne i8 %84, 0
  br i1 %85, label %101, label %86

86:                                               ; preds = %82, %78
  br label %87

87:                                               ; preds = %86
  br label %88

88:                                               ; preds = %87
  br label %89

89:                                               ; preds = %88
  %90 = load i64, ptr @H5E_ARGS_g, align 8
  %91 = load i64, ptr @H5E_BADVALUE_g, align 8
  %92 = call i32 (ptr, ptr, i32, i64, i64, ptr, ...) @H5E_printf_stack(ptr noundef @.str, ptr noundef @__func__.H5Gget_comment, i32 noundef 743, i64 noundef %90, i64 noundef %91, ptr noundef @.str.26)
  br label %93

93:                                               ; preds = %89
  store i8 1, ptr %16, align 1
  %94 = load i8, ptr %16, align 1
  %95 = trunc i8 %94 to i1
  %96 = zext i1 %95 to i8
  store i8 %96, ptr %16, align 1
  br label %97

97:                                               ; preds = %93
  br label %98

98:                                               ; preds = %97
  store i32 -1, ptr %14, align 4
  br label %200

99:                                               ; No predecessors!
  br label %100

100:                                              ; preds = %99
  br label %101

101:                                              ; preds = %100, %82
  %102 = load i64, ptr %7, align 8
  %103 = icmp ugt i64 %102, 0
  br i1 %103, label %104, label %122

104:                                              ; preds = %101
  %105 = load ptr, ptr %8, align 8
  %106 = icmp ne ptr %105, null
  br i1 %106, label %122, label %107

107:                                              ; preds = %104
  br label %108

108:                                              ; preds = %107
  br label %109

109:                                              ; preds = %108
  br label %110

110:                                              ; preds = %109
  %111 = load i64, ptr @H5E_ARGS_g, align 8
  %112 = load i64, ptr @H5E_BADVALUE_g, align 8
  %113 = call i32 (ptr, ptr, i32, i64, i64, ptr, ...) @H5E_printf_stack(ptr noundef @.str, ptr noundef @__func__.H5Gget_comment, i32 noundef 745, i64 noundef %111, i64 noundef %112, ptr noundef @.str.29)
  br label %114

114:                                              ; preds = %110
  store i8 1, ptr %16, align 1
  %115 = load i8, ptr %16, align 1
  %116 = trunc i8 %115 to i1
  %117 = zext i1 %116 to i8
  store i8 %117, ptr %16, align 1
  br label %118

118:                                              ; preds = %114
  br label %119

119:                                              ; preds = %118
  store i32 -1, ptr %14, align 4
  br label %200

120:                                              ; No predecessors!
  br label %121

121:                                              ; preds = %120
  br label %122

122:                                              ; preds = %121, %104, %101
  %123 = load i64, ptr %5, align 8
  %124 = call i32 @H5CX_set_loc(i64 noundef %123)
  %125 = icmp slt i32 %124, 0
  br i1 %125, label %126, label %141

126:                                              ; preds = %122
  br label %127

127:                                              ; preds = %126
  br label %128

128:                                              ; preds = %127
  br label %129

129:                                              ; preds = %128
  %130 = load i64, ptr @H5E_SYM_g, align 8
  %131 = load i64, ptr @H5E_CANTSET_g, align 8
  %132 = call i32 (ptr, ptr, i32, i64, i64, ptr, ...) @H5E_printf_stack(ptr noundef @.str, ptr noundef @__func__.H5Gget_comment, i32 noundef 749, i64 noundef %130, i64 noundef %131, ptr noundef @.str.10)
  br label %133

133:                                              ; preds = %129
  store i8 1, ptr %16, align 1
  %134 = load i8, ptr %16, align 1
  %135 = trunc i8 %134 to i1
  %136 = zext i1 %135 to i8
  store i8 %136, ptr %16, align 1
  br label %137

137:                                              ; preds = %133
  br label %138

138:                                              ; preds = %137
  store i32 -1, ptr %14, align 4
  br label %200

139:                                              ; No predecessors!
  br label %140

140:                                              ; preds = %139
  br label %141

141:                                              ; preds = %140, %122
  %142 = getelementptr inbounds %struct.H5VL_loc_params_t, ptr %12, i32 0, i32 1
  store i32 1, ptr %142, align 4
  %143 = load ptr, ptr %6, align 8
  %144 = getelementptr inbounds %struct.H5VL_loc_params_t, ptr %12, i32 0, i32 2
  %145 = getelementptr inbounds %struct.H5VL_loc_by_name, ptr %144, i32 0, i32 0
  store ptr %143, ptr %145, align 8
  %146 = load i64, ptr @H5P_LST_LINK_ACCESS_ID_g, align 8
  %147 = getelementptr inbounds %struct.H5VL_loc_params_t, ptr %12, i32 0, i32 2
  %148 = getelementptr inbounds %struct.H5VL_loc_by_name, ptr %147, i32 0, i32 1
  store i64 %146, ptr %148, align 8
  %149 = load i64, ptr %5, align 8
  %150 = call i32 @H5I_get_type(i64 noundef %149)
  %151 = getelementptr inbounds %struct.H5VL_loc_params_t, ptr %12, i32 0, i32 0
  store i32 %150, ptr %151, align 8
  %152 = load i64, ptr %5, align 8
  %153 = call ptr @H5VL_vol_object(i64 noundef %152)
  store ptr %153, ptr %9, align 8
  %154 = icmp eq ptr null, %153
  br i1 %154, label %155, label %170

155:                                              ; preds = %141
  br label %156

156:                                              ; preds = %155
  br label %157

157:                                              ; preds = %156
  br label %158

158:                                              ; preds = %157
  %159 = load i64, ptr @H5E_ARGS_g, align 8
  %160 = load i64, ptr @H5E_BADTYPE_g, align 8
  %161 = call i32 (ptr, ptr, i32, i64, i64, ptr, ...) @H5E_printf_stack(ptr noundef @.str, ptr noundef @__func__.H5Gget_comment, i32 noundef 759, i64 noundef %159, i64 noundef %160, ptr noundef @.str.11)
  br label %162

162:                                              ; preds = %158
  store i8 1, ptr %16, align 1
  %163 = load i8, ptr %16, align 1
  %164 = trunc i8 %163 to i1
  %165 = zext i1 %164 to i8
  store i8 %165, ptr %16, align 1
  br label %166

166:                                              ; preds = %162
  br label %167

167:                                              ; preds = %166
  store i32 -1, ptr %14, align 4
  br label %200

168:                                              ; No predecessors!
  br label %169

169:                                              ; preds = %168
  br label %170

170:                                              ; preds = %169, %141
  %171 = load ptr, ptr %8, align 8
  %172 = getelementptr inbounds %struct.H5VL_native_object_get_comment_t, ptr %11, i32 0, i32 1
  store ptr %171, ptr %172, align 8
  %173 = load i64, ptr %7, align 8
  %174 = getelementptr inbounds %struct.H5VL_native_object_get_comment_t, ptr %11, i32 0, i32 0
  store i64 %173, ptr %174, align 8
  %175 = getelementptr inbounds %struct.H5VL_native_object_get_comment_t, ptr %11, i32 0, i32 2
  store ptr %13, ptr %175, align 8
  %176 = getelementptr inbounds %struct.H5VL_optional_args_t, ptr %10, i32 0, i32 0
  store i32 0, ptr %176, align 8
  %177 = getelementptr inbounds %struct.H5VL_optional_args_t, ptr %10, i32 0, i32 1
  store ptr %11, ptr %177, align 8
  %178 = load ptr, ptr %9, align 8
  %179 = load i64, ptr @H5P_LST_DATASET_XFER_ID_g, align 8
  %180 = call i32 @H5VL_object_optional(ptr noundef %178, ptr noundef %12, ptr noundef %10, i64 noundef %179, ptr noundef null)
  %181 = icmp slt i32 %180, 0
  br i1 %181, label %182, label %197

182:                                              ; preds = %170
  br label %183

183:                                              ; preds = %182
  br label %184

184:                                              ; preds = %183
  br label %185

185:                                              ; preds = %184
  %186 = load i64, ptr @H5E_SYM_g, align 8
  %187 = load i64, ptr @H5E_CANTGET_g, align 8
  %188 = call i32 (ptr, ptr, i32, i64, i64, ptr, ...) @H5E_printf_stack(ptr noundef @.str, ptr noundef @__func__.H5Gget_comment, i32 noundef 771, i64 noundef %186, i64 noundef %187, ptr noundef @.str.30)
  br label %189

189:                                              ; preds = %185
  store i8 1, ptr %16, align 1
  %190 = load i8, ptr %16, align 1
  %191 = trunc i8 %190 to i1
  %192 = zext i1 %191 to i8
  store i8 %192, ptr %16, align 1
  br label %193

193:                                              ; preds = %189
  br label %194

194:                                              ; preds = %193
  store i32 -1, ptr %14, align 4
  br label %200

195:                                              ; No predecessors!
  br label %196

196:                                              ; preds = %195
  br label %197

197:                                              ; preds = %196, %170
  %198 = load i64, ptr %13, align 8
  %199 = trunc i64 %198 to i32
  store i32 %199, ptr %14, align 4
  br label %200

200:                                              ; preds = %197, %194, %167, %138, %119, %98, %74, %50
  %201 = load i8, ptr %15, align 1
  %202 = trunc i8 %201 to i1
  %203 = xor i1 %202, true
  %204 = xor i1 %203, true
  %205 = zext i1 %204 to i32
  %206 = sext i32 %205 to i64
  %207 = icmp ne i64 %206, 0
  br i1 %207, label %208, label %210

208:                                              ; preds = %200
  %209 = call i32 @H5CX_pop(i1 noundef zeroext true)
  store i8 0, ptr %15, align 1
  br label %210

210:                                              ; preds = %208, %200
  %211 = load i8, ptr %16, align 1
  %212 = trunc i8 %211 to i1
  %213 = xor i1 %212, true
  %214 = xor i1 %213, true
  %215 = zext i1 %214 to i32
  %216 = sext i32 %215 to i64
  %217 = icmp ne i64 %216, 0
  br i1 %217, label %218, label %220

218:                                              ; preds = %210
  %219 = call i32 @H5E_dump_api_stack()
  br label %220

220:                                              ; preds = %218, %210
  %221 = load i32, ptr %14, align 4
  ret i32 %221
}