; Function Attrs: nounwind uwtable
define i32 @H5Gget_comment(i64 noundef %0, ptr noundef %1, i64 noundef %2, ptr noundef %3) local_unnamed_addr #1 {
  %5 = alloca %struct.H5VL_optional_args_t, align 8
  %6 = alloca %union.H5VL_native_object_optional_args_t, align 8
  %7 = alloca %struct.H5VL_loc_params_t, align 8
  %8 = alloca i64, align 8
  store i64 0, ptr %8, align 8
  %9 = load i8, ptr @H5_libinit_g, align 1
  %10 = trunc i8 %9 to i1
  %11 = load i8, ptr @H5_libterm_g, align 1
  %12 = trunc i8 %11 to i1
  %13 = select i1 %10, i1 true, i1 %12
  br i1 %13, label %21, label %14

14:                                               ; preds = %4
  %15 = tail call i32 @H5_init_library() #4
  %16 = icmp slt i32 %15, 0
  br i1 %16, label %17, label %21

17:                                               ; preds = %14
  %18 = load i64, ptr @H5E_FUNC_g, align 8
  %19 = load i64, ptr @H5E_CANTINIT_g, align 8
  %20 = tail call i32 (ptr, ptr, i32, i64, i64, ptr, ...) @H5E_printf_stack(ptr noundef nonnull @.str, ptr noundef nonnull @__func__.H5Gget_comment, i32 noundef 740, i64 noundef %18, i64 noundef %19, ptr noundef nonnull @.str.1) #4
  br label %.thread34

21:                                               ; preds = %14, %4
  %22 = tail call i32 @H5CX_push() #4
  %23 = icmp slt i32 %22, 0
  br i1 %23, label %24, label %28

24:                                               ; preds = %21
  %25 = load i64, ptr @H5E_FUNC_g, align 8
  %26 = load i64, ptr @H5E_CANTSET_g, align 8
  %27 = tail call i32 (ptr, ptr, i32, i64, i64, ptr, ...) @H5E_printf_stack(ptr noundef nonnull @.str, ptr noundef nonnull @__func__.H5Gget_comment, i32 noundef 740, i64 noundef %25, i64 noundef %26, ptr noundef nonnull @.str.2) #4
  br label %.thread34

28:                                               ; preds = %21
  %29 = tail call i32 @H5E_clear_stack() #4
  %.not = icmp eq ptr %1, null
  br i1 %.not, label %32, label %30

30:                                               ; preds = %28
  %31 = load i8, ptr %1, align 1
  %.not25 = icmp eq i8 %31, 0
  br i1 %.not25, label %32, label %36

32:                                               ; preds = %28, %30
  %33 = load i64, ptr @H5E_ARGS_g, align 8
  %34 = load i64, ptr @H5E_BADVALUE_g, align 8
  %35 = tail call i32 (ptr, ptr, i32, i64, i64, ptr, ...) @H5E_printf_stack(ptr noundef nonnull @.str, ptr noundef nonnull @__func__.H5Gget_comment, i32 noundef 743, i64 noundef %33, i64 noundef %34, ptr noundef nonnull @.str.26) #4
  br label %.thread40

36:                                               ; preds = %30
  %37 = icmp eq i64 %2, 0
  %38 = icmp ne ptr %3, null
  %or.cond = or i1 %37, %38
  br i1 %or.cond, label %43, label %39

39:                                               ; preds = %36
  %40 = load i64, ptr @H5E_ARGS_g, align 8
  %41 = load i64, ptr @H5E_BADVALUE_g, align 8
  %42 = tail call i32 (ptr, ptr, i32, i64, i64, ptr, ...) @H5E_printf_stack(ptr noundef nonnull @.str, ptr noundef nonnull @__func__.H5Gget_comment, i32 noundef 745, i64 noundef %40, i64 noundef %41, ptr noundef nonnull @.str.29) #4
  br label %.thread40

43:                                               ; preds = %36
  %44 = tail call i32 @H5CX_set_loc(i64 noundef %0) #4
  %45 = icmp slt i32 %44, 0
  br i1 %45, label %46, label %50

46:                                               ; preds = %43
  %47 = load i64, ptr @H5E_SYM_g, align 8
  %48 = load i64, ptr @H5E_CANTSET_g, align 8
  %49 = tail call i32 (ptr, ptr, i32, i64, i64, ptr, ...) @H5E_printf_stack(ptr noundef nonnull @.str, ptr noundef nonnull @__func__.H5Gget_comment, i32 noundef 749, i64 noundef %47, i64 noundef %48, ptr noundef nonnull @.str.10) #4
  br label %.thread40

50:                                               ; preds = %43
  %51 = getelementptr inbounds i8, ptr %7, i64 4
  store i32 1, ptr %51, align 4
  %52 = getelementptr inbounds i8, ptr %7, i64 8
  store ptr %1, ptr %52, align 8
  %53 = load i64, ptr @H5P_LST_LINK_ACCESS_ID_g, align 8
  %54 = getelementptr inbounds i8, ptr %7, i64 16
  store i64 %53, ptr %54, align 8
  %55 = tail call i32 @H5I_get_type(i64 noundef %0) #4
  store i32 %55, ptr %7, align 8
  %56 = tail call ptr @H5VL_vol_object(i64 noundef %0) #4
  %57 = icmp eq ptr %56, null
  br i1 %57, label %58, label %62

58:                                               ; preds = %50
  %59 = load i64, ptr @H5E_ARGS_g, align 8
  %60 = load i64, ptr @H5E_BADTYPE_g, align 8
  %61 = tail call i32 (ptr, ptr, i32, i64, i64, ptr, ...) @H5E_printf_stack(ptr noundef nonnull @.str, ptr noundef nonnull @__func__.H5Gget_comment, i32 noundef 759, i64 noundef %59, i64 noundef %60, ptr noundef nonnull @.str.11) #4
  br label %.thread40

62:                                               ; preds = %50
  %63 = getelementptr inbounds i8, ptr %6, i64 8
  store ptr %3, ptr %63, align 8
  store i64 %2, ptr %6, align 8
  %64 = getelementptr inbounds i8, ptr %6, i64 16
  store ptr %8, ptr %64, align 8
  store i32 0, ptr %5, align 8
  %65 = getelementptr inbounds i8, ptr %5, i64 8
  store ptr %6, ptr %65, align 8
  %66 = load i64, ptr @H5P_LST_DATASET_XFER_ID_g, align 8
  %67 = call i32 @H5VL_object_optional(ptr noundef nonnull %56, ptr noundef nonnull %7, ptr noundef nonnull %5, i64 noundef %66, ptr noundef null) #4
  %68 = icmp slt i32 %67, 0
  br i1 %68, label %69, label %74

69:                                               ; preds = %62
  %70 = load i64, ptr @H5E_SYM_g, align 8
  %71 = load i64, ptr @H5E_CANTGET_g, align 8
  %72 = call i32 (ptr, ptr, i32, i64, i64, ptr, ...) @H5E_printf_stack(ptr noundef nonnull @.str, ptr noundef nonnull @__func__.H5Gget_comment, i32 noundef 771, i64 noundef %70, i64 noundef %71, ptr noundef nonnull @.str.30) #4
  br label %.thread40

.thread40:                                        ; preds = %32, %39, %69, %58, %46
  %73 = call i32 @H5CX_pop(i1 noundef zeroext true) #4
  br label %.thread34

74:                                               ; preds = %62
  %75 = load i64, ptr %8, align 8
  %76 = trunc i64 %75 to i32
  %77 = call i32 @H5CX_pop(i1 noundef zeroext true) #4
  br label %79

.thread34:                                        ; preds = %24, %17, %.thread40
  %78 = call i32 @H5E_dump_api_stack() #4
  br label %79

79:                                               ; preds = %74, %.thread34
  %.0222937 = phi i32 [ -1, %.thread34 ], [ %76, %74 ]
  ret i32 %.0222937
}